(lp0
V"\u0924 \u090f\u0924\u094d\u0930\u094b \u0938\u093e\u0928\u094b \u0939\u0941\u0901\u0926\u093e \u0924\u0932\u093e\u0907 \u0939\u0938\u093e\u0915\u094b \u0925\u093f\u090f \u092c\u0941\u091d\u093f\u0938" #\u0915\u093e\u0915\u093e\u092d\u0924\u093f\u091c\u093estories
p1
aV"You either work for your #dream or theirs"
p2
aVFinally #NewGloves #Gift #Excited #ThankYou #happy
p3
aV\u0935\u093f\u0925 @\u092e\u093e\u0921\u0947 \u0964
p4
aVSunset between the trees
p5
a.