(lp0
VRT @ShakarBhattarai: #CodeCamp #Yomari #TukiLabs #Locus2017 https://t.co/jkLrHWYZPG
p1
aVRT @ShakarBhattarai: Sentiment Analysis test 2 https://t.co/Zc1HBQBXrn
p2
aVRT @ShakarBhattarai: Sentiment 4:Surprise #CodeCamp https://t.co/qtHo2ktuYR
p3
aVRT @ShakarBhattarai: Sentiment 3: Anger https://t.co/ViDORBnySh
p4
aVwhat a magnificient capture https://t.co/UGAeHbP3jK
p5
aVincreasing my fluency upto thirty percent this week #LifeGoals
p6
aVlike, how? https://t.co/aMcXnKdpEG
p7
aVActually, information makes a person strong https://t.co/GfwTlu0YGN
p8
aVich bin glucklich ohne dich
p9
aVRT @ShakarBhattarai: Or chasing me with Hattichap Chappal! https://t.co/aHfxFpZEOF
p10
aVthese screenwriters should stop it with all these blind puns #NowWatching #Kaabil
p11
a.