(lp0
Vhttps://ig-s-a-a.akamaihd.net/hphotos-ak-xfa1/t51.2885-15/e15/c234.0.612.612/16464406_968199853279940_6933644165842468864_n.jpg?ig_cache_key=MTQ0MDY3NjM5NjQ0NzE3OTgwNA%3D%3D.2.c
p1
aVhttps://ig-s-d-a.akamaihd.net/hphotos-ak-xfa1/t51.2885-15/e35/c0.56.449.449/16464443_1814327475471995_7870219461851086848_n.jpg?ig_cache_key=MTQ0MDAxNTE4MjU0MTAyMzAyNQ%3D%3D.2.c
p2
aVhttps://ig-s-b-a.akamaihd.net/hphotos-ak-xfa1/t51.2885-15/e15/c0.75.612.612/16229273_239791833139541_3206487313198612480_n.jpg?ig_cache_key=MTQzOTEzODI3MDQxOTYwOTg1Mg%3D%3D.2.c
p3
aVhttps://ig-s-a-a.akamaihd.net/hphotos-ak-xfa1/t51.2885-15/s640x640/sh0.08/e35/c91.0.897.897/14722949_229836834143196_8640207802674970624_n.jpg?ig_cache_key=MTQzOTEzNjcwMjA4NTIyMzM3MA%3D%3D.2.c
p4
aVhttps://ig-s-c-a.akamaihd.net/hphotos-ak-xfa1/t51.2885-15/s640x640/sh0.08/e35/c117.0.846.846/16228957_1620450024639106_5676461917808361472_n.jpg?ig_cache_key=MTQzOTEzNTk2NjEyNzUyNTUzNA%3D%3D.2.c
p5
a.